target datalayout = "e-m:e-p270:32:32-p271:32:32-p272:64:64-i64:64-i128:128-f80:128-n8:16:32:64-S128"
target triple = "x86_64-pc-linux-gnu"

@.str.5 = private unnamed_addr constant [3 x i8] c"wb\00", align 1

; Function Attrs: mustprogress uwtable
define dso_local i32 @stbi_write_png(ptr noundef %0, i32 noundef %1, i32 noundef %2, i32 noundef %3, ptr noundef %4, i32 noundef %5) #4 {
  %7 = alloca i32, align 4
  %8 = alloca ptr, align 8
  %9 = alloca i32, align 4
  %10 = alloca i32, align 4
  %11 = alloca i32, align 4
  %12 = alloca ptr, align 8
  %13 = alloca i32, align 4
  %14 = alloca ptr, align 8
  %15 = alloca i32, align 4
  %16 = alloca ptr, align 8
  store ptr %0, ptr %8, align 8
  store i32 %1, ptr %9, align 4
  store i32 %2, ptr %10, align 4
  store i32 %3, ptr %11, align 4
  store ptr %4, ptr %12, align 8
  store i32 %5, ptr %13, align 4
  %17 = load ptr, ptr %12, align 8
  %18 = load i32, ptr %13, align 4
  %19 = load i32, ptr %9, align 4
  %20 = load i32, ptr %10, align 4
  %21 = load i32, ptr %11, align 4
  %22 = call noundef ptr @_Z21stbi_write_png_to_memPhiiiiPi(ptr noundef %17, i32 noundef %18, i32 noundef %19, i32 noundef %20, i32 noundef %21, ptr noundef %15)
  store ptr %22, ptr %16, align 8
  %23 = load ptr, ptr %16, align 8
  %24 = icmp eq ptr %23, null
  br i1 %24, label %25, label %26

25:                                               ; preds = %6
  store i32 0, ptr %7, align 4
  br label %42

26:                                               ; preds = %6
  %27 = load ptr, ptr %8, align 8
  %28 = call noalias ptr @fopen(ptr noundef %27, ptr noundef @.str.5)
  store ptr %28, ptr %14, align 8
  %29 = load ptr, ptr %14, align 8
  %30 = icmp ne ptr %29, null
  br i1 %30, label %33, label %31

31:                                               ; preds = %26
  %32 = load ptr, ptr %16, align 8
  call void @free(ptr noundef %32) #18
  store i32 0, ptr %7, align 4
  br label %42

33:                                               ; preds = %26
  %34 = load ptr, ptr %16, align 8
  %35 = load i32, ptr %15, align 4
  %36 = sext i32 %35 to i64
  %37 = load ptr, ptr %14, align 8
  %38 = call i64 @fwrite(ptr noundef %34, i64 noundef 1, i64 noundef %36, ptr noundef %37)
  %39 = load ptr, ptr %14, align 8
  %40 = call i32 @fclose(ptr noundef %39)
  %41 = load ptr, ptr %16, align 8
  call void @free(ptr noundef %41) #18
  store i32 1, ptr %7, align 4
  br label %42

42:                                               ; preds = %33, %31, %25
  %43 = load i32, ptr %7, align 4
  ret i32 %43
}