; Function Attrs: mustprogress nounwind uwtable
define dso_local noundef i32 @stbi_write_png(ptr nocapture noundef readonly %0, i32 noundef %1, i32 noundef %2, i32 noundef %3, ptr nocapture noundef readonly %4, i32 noundef %5) local_unnamed_addr #1 {
  %7 = alloca i32, align 4
  %8 = call noundef ptr @_Z21stbi_write_png_to_memPhiiiiPi(ptr noundef %4, i32 noundef %5, i32 noundef %1, i32 noundef %2, i32 noundef %3, ptr noundef nonnull %7)
  %9 = icmp eq ptr %8, null
  br i1 %9, label %17, label %10

10:                                               ; preds = %6
  %11 = tail call noalias ptr @fopen(ptr noundef %0, ptr noundef nonnull @.str.5)
  %.not = icmp eq ptr %11, null
  br i1 %.not, label %.sink.split, label %12

12:                                               ; preds = %10
  %13 = load i32, ptr %7, align 4
  %14 = sext i32 %13 to i64
  %15 = tail call i64 @fwrite(ptr noundef nonnull %8, i64 noundef 1, i64 noundef %14, ptr noundef nonnull %11)
  %16 = tail call i32 @fclose(ptr noundef nonnull %11)
  br label %.sink.split

.sink.split:                                      ; preds = %10, %12
  %.0.ph = phi i32 [ 1, %12 ], [ 0, %10 ]
  tail call void @free(ptr noundef nonnull %8) #24
  br label %17

17:                                               ; preds = %.sink.split, %6
  %.0 = phi i32 [ 0, %6 ], [ %.0.ph, %.sink.split ]
  ret i32 %.0
}